
Allocating common symbols
Common symbol       size              file

I2C_address         0x1               /tmp/ccJHsJvw.o
I2C_byte            0x1               /tmp/ccJHsJvw.o

Memory Configuration

Name             Origin             Length             Attributes
FLASH            0x0000000008000000 0x0000000000010000
RAM              0x0000000020000000 0x0000000000005000
*default*        0x0000000000000000 0xffffffffffffffff

Linker script and memory map

                0x0000000020005000                _STACK_TOP = (ORIGIN (RAM) + LENGTH (RAM))
                0x0000000008000000                . = ORIGIN (FLASH)

.text           0x0000000008000000      0xce8
                0x0000000008000000                . = ALIGN (0x4)
 *(vectors)
 vectors        0x0000000008000000       0xec /tmp/ccQsftsm.o
                0x00000000080000ec                . = ALIGN (0x4)
 *(.text)
 .text          0x00000000080000ec      0x154 /tmp/ccRTWjw8.o
                0x000000000800011c                main
 .text          0x0000000008000240       0xb4 /tmp/ccQsftsm.o
                0x0000000008000272                _NMI_Handler
                0x0000000008000274                _HardFault_Handler
                0x0000000008000276                _MemManage_Handler
                0x0000000008000278                _BusFault_Handler
                0x000000000800027a                _UsageFault_Handler
                0x000000000800027c                _SVCall_Handler
                0x000000000800027e                _DebugMonitor_Handler
                0x0000000008000280                _PendSV_Handler
                0x0000000008000282                _SysTick_Handler
                0x0000000008000284                WWDG_IRQ
                0x0000000008000286                PVD_IRQ
                0x0000000008000288                TAMPER_IRQ
                0x000000000800028a                RTC_IRQ
                0x000000000800028c                FLASH_IRQ
                0x000000000800028e                RCC_IRQ
                0x0000000008000290                EXTI0_IRQ
                0x0000000008000292                EXTI1_IRQ
                0x0000000008000294                EXTI2_IRQ
                0x0000000008000296                EXTI3_IRQ
                0x0000000008000298                EXTI4_IRQ
                0x000000000800029a                DMA1_Channel1_IRQ
                0x000000000800029c                DMA1_Channel2_IRQ
                0x000000000800029e                DMA1_Channel3_IRQ
                0x00000000080002a0                DMA1_Channel4_IRQ
                0x00000000080002a2                DMA1_Channel5_IRQ
                0x00000000080002a6                DMA1_Channel7_IRQ
                0x00000000080002a8                ADC1_2_IRQ
                0x00000000080002aa                USB_HP_CAN1_TX_IRQ
                0x00000000080002ac                USB_LP_CAN1_RX0_IRQ
                0x00000000080002ae                CAN1_RX1_IRQ
                0x00000000080002b0                CAN1_SCE_IRQ
                0x00000000080002b2                EXTI9_5_IRQ
                0x00000000080002b4                TIM1_BRK_IRQ
                0x00000000080002b6                TIM1_UP_IRQ
                0x00000000080002b8                TIM1_TRG_COM_IRQ
                0x00000000080002ba                TIM1_CC_IRQ
                0x00000000080002be                TIM3_IRQ
                0x00000000080002c0                TIM4_IRQ
                0x00000000080002c4                I2C1_ER_IRQ
                0x00000000080002c6                I2C2_EV_IRQ
                0x00000000080002c8                I2C2_ER_IRQ
                0x00000000080002ca                SPI1_IRQ
                0x00000000080002cc                SPI2_IRQ
                0x00000000080002d0                USART2_IRQ
                0x00000000080002d2                USART3_IRQ
                0x00000000080002d4                EXTI15_10_IRQ
                0x00000000080002d6                RTCAlarm_IRQ
                0x00000000080002d8                USBWakeUp_IRQ
 .text          0x00000000080002f4      0x314 /tmp/ccJ8NWHA.o
                0x0000000008000324                USART1_IRQ
                0x0000000008000340                Init_USART
                0x00000000080003e8                USART_Receive
                0x0000000008000444                USART_Send_Str
                0x000000000800047a                USART_Clear_Screen
                0x000000000800048c                USART_Send_Integer
 .text          0x0000000008000608      0x1b0 /tmp/ccMH7B2O.o
                0x0000000008000608                Init_System_Clocks
                0x0000000008000644                System_Clock_Init_HSE
                0x0000000008000698                System_Clock_Init_PLL
                0x00000000080006f8                System_Clock_Init_LSE
                0x000000000800074c                System_Clock_Init_RTC
                0x000000000800079c                System_Clock_Init_USB
 .text          0x00000000080007b8       0x94 /tmp/ccv8KWr3.o
                0x00000000080007b8                Init_GPIO
                0x00000000080007fc                LED_Toggle
 .text          0x000000000800084c       0xc4 /tmp/cc4qeRVh.o
                0x000000000800084c                Init_TIM2
                0x0000000008000884                TIM2_Delay_ms
                0x00000000080008e0                TIM2_IRQ
 .text          0x0000000008000910      0x35c /tmp/ccJHsJvw.o
                0x0000000008000940                Init_I2C
                0x00000000080009e8                I2C_Init_DMA
                0x0000000008000a8c                I2C_Send_Byte
                0x0000000008000ad4                I2C_Send_Bytes
                0x0000000008000b18                I2C_Wait_Until_Ready
                0x0000000008000b38                I2C1_EV_IRQ
                0x0000000008000bec                DMA1_Channel6_IRQ
 *(.rodata)
 .rodata        0x0000000008000c6c       0x52 /tmp/ccRTWjw8.o
 *fill*         0x0000000008000cbe        0x2 
 .rodata        0x0000000008000cc0       0x25 /tmp/ccJ8NWHA.o
                0x0000000008000ce8                . = ALIGN (0x4)
 *fill*         0x0000000008000ce5        0x3 

.glue_7         0x0000000008000ce8        0x0
 .glue_7        0x0000000008000ce8        0x0 linker stubs

.glue_7t        0x0000000008000ce8        0x0
 .glue_7t       0x0000000008000ce8        0x0 linker stubs

.vfp11_veneer   0x0000000008000ce8        0x0
 .vfp11_veneer  0x0000000008000ce8        0x0 linker stubs

.v4_bx          0x0000000008000ce8        0x0
 .v4_bx         0x0000000008000ce8        0x0 linker stubs

.iplt           0x0000000008000ce8        0x0
 .iplt          0x0000000008000ce8        0x0 /tmp/ccRTWjw8.o

.rel.dyn        0x0000000008000ce8        0x0
 .rel.iplt      0x0000000008000ce8        0x0 /tmp/ccRTWjw8.o
                0x0000000008000ce8                . = ALIGN (0x4)
                0x0000000008000ce8                FLASH_DATA_START = .
                0x0000000020000000                . = ORIGIN (RAM)
                0x0000000020000000                RAM_DATA_START = .

.data           0x0000000020000000        0x0 load address 0x0000000008000ce8
                0x0000000020000000                . = ALIGN (0x4)
 *(.data)
 .data          0x0000000020000000        0x0 /tmp/ccRTWjw8.o
 .data          0x0000000020000000        0x0 /tmp/ccQsftsm.o
 .data          0x0000000020000000        0x0 /tmp/ccJ8NWHA.o
 .data          0x0000000020000000        0x0 /tmp/ccMH7B2O.o
 .data          0x0000000020000000        0x0 /tmp/ccv8KWr3.o
 .data          0x0000000020000000        0x0 /tmp/cc4qeRVh.o
 .data          0x0000000020000000        0x0 /tmp/ccJHsJvw.o

.igot.plt       0x0000000020000000        0x0 load address 0x0000000008000ce8
 .igot.plt      0x0000000020000000        0x0 /tmp/ccRTWjw8.o
                0x0000000020000000                . = ALIGN (0x4)
                0x0000000020000000                RAM_DATA_END = .
                0x0000000000000000                RAM_DATA_SIZE = (RAM_DATA_END - RAM_DATA_START)
                0x0000000020000000                __bss_start__ = .

.bss            0x0000000020000000        0x6 load address 0x0000000008000ce8
                0x0000000020000000                . = ALIGN (0x4)
 *(.bss)
 .bss           0x0000000020000000        0x0 /tmp/ccRTWjw8.o
 .bss           0x0000000020000000        0x0 /tmp/ccQsftsm.o
 .bss           0x0000000020000000        0x0 /tmp/ccJ8NWHA.o
 .bss           0x0000000020000000        0x0 /tmp/ccMH7B2O.o
 .bss           0x0000000020000000        0x0 /tmp/ccv8KWr3.o
 .bss           0x0000000020000000        0x4 /tmp/cc4qeRVh.o
                0x0000000020000000                global_counter
 .bss           0x0000000020000004        0x0 /tmp/ccJHsJvw.o
 COMMON         0x0000000020000004        0x2 /tmp/ccJHsJvw.o
                0x0000000020000004                I2C_address
                0x0000000020000005                I2C_byte
                0x0000000020000008                . = ALIGN (0x4)
                0x0000000020000008                __bss_end__ = .
                0x0000000000000008                bss_size = (__bss_end__ - __bss_start__)
                0x0000000020000008                end = .
LOAD /tmp/ccRTWjw8.o
LOAD /tmp/ccQsftsm.o
LOAD /tmp/ccJ8NWHA.o
LOAD /tmp/ccMH7B2O.o
LOAD /tmp/ccv8KWr3.o
LOAD /tmp/cc4qeRVh.o
LOAD /tmp/ccJHsJvw.o
OUTPUT(USART_improved.elf elf32-littlearm)

.debug_info     0x0000000000000000     0x1ae1
 .debug_info    0x0000000000000000      0x3db /tmp/ccRTWjw8.o
 .debug_info    0x00000000000003db       0x86 /tmp/ccQsftsm.o
 .debug_info    0x0000000000000461      0x695 /tmp/ccJ8NWHA.o
 .debug_info    0x0000000000000af6      0x2cf /tmp/ccMH7B2O.o
 .debug_info    0x0000000000000dc5      0x225 /tmp/ccv8KWr3.o
 .debug_info    0x0000000000000fea      0x3cf /tmp/cc4qeRVh.o
 .debug_info    0x00000000000013b9      0x728 /tmp/ccJHsJvw.o

.debug_abbrev   0x0000000000000000      0x834
 .debug_abbrev  0x0000000000000000      0x14d /tmp/ccRTWjw8.o
 .debug_abbrev  0x000000000000014d       0x14 /tmp/ccQsftsm.o
 .debug_abbrev  0x0000000000000161      0x1f0 /tmp/ccJ8NWHA.o
 .debug_abbrev  0x0000000000000351       0xf8 /tmp/ccMH7B2O.o
 .debug_abbrev  0x0000000000000449      0x10f /tmp/ccv8KWr3.o
 .debug_abbrev  0x0000000000000558       0xea /tmp/cc4qeRVh.o
 .debug_abbrev  0x0000000000000642      0x1f2 /tmp/ccJHsJvw.o

.debug_aranges  0x0000000000000000       0xe0
 .debug_aranges
                0x0000000000000000       0x20 /tmp/ccRTWjw8.o
 .debug_aranges
                0x0000000000000020       0x20 /tmp/ccQsftsm.o
 .debug_aranges
                0x0000000000000040       0x20 /tmp/ccJ8NWHA.o
 .debug_aranges
                0x0000000000000060       0x20 /tmp/ccMH7B2O.o
 .debug_aranges
                0x0000000000000080       0x20 /tmp/ccv8KWr3.o
 .debug_aranges
                0x00000000000000a0       0x20 /tmp/cc4qeRVh.o
 .debug_aranges
                0x00000000000000c0       0x20 /tmp/ccJHsJvw.o

.debug_line     0x0000000000000000      0x738
 .debug_line    0x0000000000000000      0x11a /tmp/ccRTWjw8.o
 .debug_line    0x000000000000011a       0x94 /tmp/ccQsftsm.o
 .debug_line    0x00000000000001ae      0x14a /tmp/ccJ8NWHA.o
 .debug_line    0x00000000000002f8      0x12f /tmp/ccMH7B2O.o
 .debug_line    0x0000000000000427       0xe8 /tmp/ccv8KWr3.o
 .debug_line    0x000000000000050f       0xeb /tmp/cc4qeRVh.o
 .debug_line    0x00000000000005fa      0x13e /tmp/ccJHsJvw.o

.debug_str      0x0000000000000000      0x882
 .debug_str     0x0000000000000000      0x486 /tmp/ccRTWjw8.o
                                        0x4d9 (size before relaxing)
 .debug_str     0x0000000000000486      0x111 /tmp/ccJ8NWHA.o
                                        0x5c4 (size before relaxing)
 .debug_str     0x0000000000000597       0xc6 /tmp/ccMH7B2O.o
                                        0x26b (size before relaxing)
 .debug_str     0x000000000000065d       0x27 /tmp/ccv8KWr3.o
                                        0x1b8 (size before relaxing)
 .debug_str     0x0000000000000684      0x10f /tmp/cc4qeRVh.o
                                        0x2e3 (size before relaxing)
 .debug_str     0x0000000000000793       0xef /tmp/ccJHsJvw.o
                                        0x62d (size before relaxing)

.comment        0x0000000000000000       0x1d
 .comment       0x0000000000000000       0x1d /tmp/ccRTWjw8.o
                                         0x1e (size before relaxing)
 .comment       0x000000000000001d       0x1e /tmp/ccJ8NWHA.o
 .comment       0x000000000000001d       0x1e /tmp/ccMH7B2O.o
 .comment       0x000000000000001d       0x1e /tmp/ccv8KWr3.o
 .comment       0x000000000000001d       0x1e /tmp/cc4qeRVh.o
 .comment       0x000000000000001d       0x1e /tmp/ccJHsJvw.o

.ARM.attributes
                0x0000000000000000       0x31
 .ARM.attributes
                0x0000000000000000       0x33 /tmp/ccRTWjw8.o
 .ARM.attributes
                0x0000000000000033       0x1b /tmp/ccQsftsm.o
 .ARM.attributes
                0x000000000000004e       0x33 /tmp/ccJ8NWHA.o
 .ARM.attributes
                0x0000000000000081       0x33 /tmp/ccMH7B2O.o
 .ARM.attributes
                0x00000000000000b4       0x33 /tmp/ccv8KWr3.o
 .ARM.attributes
                0x00000000000000e7       0x33 /tmp/cc4qeRVh.o
 .ARM.attributes
                0x000000000000011a       0x33 /tmp/ccJHsJvw.o

.debug_frame    0x0000000000000000      0x484
 .debug_frame   0x0000000000000000       0x58 /tmp/ccRTWjw8.o
 .debug_frame   0x0000000000000058      0x12c /tmp/ccJ8NWHA.o
 .debug_frame   0x0000000000000184       0xe4 /tmp/ccMH7B2O.o
 .debug_frame   0x0000000000000268       0x58 /tmp/ccv8KWr3.o
 .debug_frame   0x00000000000002c0       0x78 /tmp/cc4qeRVh.o
 .debug_frame   0x0000000000000338      0x14c /tmp/ccJHsJvw.o

.debug_ranges   0x0000000000000000       0x48
 .debug_ranges  0x0000000000000000       0x48 /tmp/ccMH7B2O.o
